target datalayout = "e-m:e-p270:32:32-p271:32:32-p272:64:64-i64:64-i128:128-f80:128-n8:16:32:64-S128"
target triple = "x86_64-pc-linux-gnu"

%struct.uv_udp_s = type { ptr, ptr, i32, ptr, [2 x ptr], %union.anon, ptr, i32, i64, i64, ptr, ptr, %struct.uv__io_s, [2 x ptr], [2 x ptr] }
%union.anon = type { [4 x ptr] }
%struct.uv__io_s = type { ptr, [2 x ptr], [2 x ptr], i32, i32, i32 }
%struct.uv_loop_s = type { ptr, i32, [2 x ptr], %union.anon.0, ptr, i32, i64, i32, [2 x ptr], [2 x ptr], ptr, i32, i32, [2 x ptr], %union.pthread_mutex_t, %struct.uv_async_s, %union.pthread_rwlock_t, ptr, [2 x ptr], [2 x ptr], [2 x ptr], [2 x ptr], [2 x ptr], ptr, %struct.uv__io_s, i32, %struct.anon, i64, i64, [2 x i32], %struct.uv__io_s, %struct.uv_signal_s, i32, %struct.uv__io_s, ptr, i32 }
%union.anon.0 = type { ptr }
%union.pthread_mutex_t = type { %struct.__pthread_mutex_s }
%struct.__pthread_mutex_s = type { i32, i32, i32, i32, i32, i16, i16, %struct.__pthread_internal_list }
%struct.__pthread_internal_list = type { ptr, ptr }
%struct.uv_async_s = type { ptr, ptr, i32, ptr, [2 x ptr], %union.anon.1, ptr, i32, ptr, [2 x ptr], i32 }
%union.anon.1 = type { [4 x ptr] }
%union.pthread_rwlock_t = type { %struct.__pthread_rwlock_arch_t }
%struct.__pthread_rwlock_arch_t = type { i32, i32, i32, i32, i32, i32, i32, i32, i8, [7 x i8], i64, i32 }
%struct.anon = type { ptr, i32 }
%struct.uv_signal_s = type { ptr, ptr, i32, ptr, [2 x ptr], %union.anon.2, ptr, i32, ptr, i32, %struct.anon.3, i32, i32 }
%union.anon.2 = type { [4 x ptr] }
%struct.anon.3 = type { ptr, ptr, ptr, i32 }

; Function Attrs: nounwind uwtable
define dso_local void @uv__udp_close(ptr noundef %0) #0 {
  %2 = alloca ptr, align 8
  store ptr %0, ptr %2, align 8
  %3 = load ptr, ptr %2, align 8
  %4 = getelementptr inbounds %struct.uv_udp_s, ptr %3, i32 0, i32 1
  %5 = load ptr, ptr %4, align 8
  %6 = load ptr, ptr %2, align 8
  %7 = getelementptr inbounds %struct.uv_udp_s, ptr %6, i32 0, i32 12
  call void @uv__io_close(ptr noundef %5, ptr noundef %7)
  br label %8

8:                                                ; preds = %1
  %9 = load ptr, ptr %2, align 8
  %10 = getelementptr inbounds %struct.uv_udp_s, ptr %9, i32 0, i32 7
  %11 = load i32, ptr %10, align 8
  %12 = and i32 %11, 4
  %13 = icmp eq i32 %12, 0
  br i1 %13, label %14, label %15

14:                                               ; preds = %8
  br label %35

15:                                               ; preds = %8
  %16 = load ptr, ptr %2, align 8
  %17 = getelementptr inbounds %struct.uv_udp_s, ptr %16, i32 0, i32 7
  %18 = load i32, ptr %17, align 8
  %19 = and i32 %18, -5
  store i32 %19, ptr %17, align 8
  %20 = load ptr, ptr %2, align 8
  %21 = getelementptr inbounds %struct.uv_udp_s, ptr %20, i32 0, i32 7
  %22 = load i32, ptr %21, align 8
  %23 = and i32 %22, 8
  %24 = icmp ne i32 %23, 0
  br i1 %24, label %25, label %34

25:                                               ; preds = %15
  br label %26

26:                                               ; preds = %25
  %27 = load ptr, ptr %2, align 8
  %28 = getelementptr inbounds %struct.uv_udp_s, ptr %27, i32 0, i32 1
  %29 = load ptr, ptr %28, align 8
  %30 = getelementptr inbounds %struct.uv_loop_s, ptr %29, i32 0, i32 1
  %31 = load i32, ptr %30, align 8
  %32 = add i32 %31, -1
  store i32 %32, ptr %30, align 8
  br label %33

33:                                               ; preds = %26
  br label %34

34:                                               ; preds = %33, %15
  br label %35

35:                                               ; preds = %34, %14
  %36 = load ptr, ptr %2, align 8
  %37 = getelementptr inbounds %struct.uv_udp_s, ptr %36, i32 0, i32 12
  %38 = getelementptr inbounds %struct.uv__io_s, ptr %37, i32 0, i32 5
  %39 = load i32, ptr %38, align 8
  %40 = icmp ne i32 %39, -1
  br i1 %40, label %41, label %50

41:                                               ; preds = %35
  %42 = load ptr, ptr %2, align 8
  %43 = getelementptr inbounds %struct.uv_udp_s, ptr %42, i32 0, i32 12
  %44 = getelementptr inbounds %struct.uv__io_s, ptr %43, i32 0, i32 5
  %45 = load i32, ptr %44, align 8
  %46 = call i32 @uv__close(i32 noundef %45)
  %47 = load ptr, ptr %2, align 8
  %48 = getelementptr inbounds %struct.uv_udp_s, ptr %47, i32 0, i32 12
  %49 = getelementptr inbounds %struct.uv__io_s, ptr %48, i32 0, i32 5
  store i32 -1, ptr %49, align 8
  br label %50

50:                                               ; preds = %41, %35
  ret void
}