; Function Attrs: nounwind uwtable
define dso_local void @uv__udp_close(ptr noundef %0) local_unnamed_addr #0 {
  %2 = getelementptr inbounds nuw i8, ptr %0, i64 8
  %3 = load ptr, ptr %2, align 8
  %4 = getelementptr inbounds nuw i8, ptr %0, i64 128
  tail call void @uv__io_close(ptr noundef %3, ptr noundef nonnull %4) #9
  %5 = getelementptr inbounds nuw i8, ptr %0, i64 88
  %6 = load i32, ptr %5, align 8
  %7 = and i32 %6, 4
  %8 = icmp eq i32 %7, 0
  br i1 %8, label %17, label %9

9:                                                ; preds = %1
  %10 = and i32 %6, -5
  store i32 %10, ptr %5, align 8
  %11 = and i32 %6, 8
  %.not = icmp eq i32 %11, 0
  br i1 %.not, label %17, label %12

12:                                               ; preds = %9
  %13 = load ptr, ptr %2, align 8
  %14 = getelementptr inbounds nuw i8, ptr %13, i64 8
  %15 = load i32, ptr %14, align 8
  %16 = add i32 %15, -1
  store i32 %16, ptr %14, align 8
  br label %17

17:                                               ; preds = %9, %12, %1
  %18 = getelementptr inbounds nuw i8, ptr %0, i64 176
  %19 = load i32, ptr %18, align 8
  %.not9 = icmp eq i32 %19, -1
  br i1 %.not9, label %22, label %20

20:                                               ; preds = %17
  %21 = tail call i32 @uv__close(i32 noundef %19) #9
  store i32 -1, ptr %18, align 8
  br label %22

22:                                               ; preds = %20, %17
  ret void
}